; Function Attrs: mustprogress nofree norecurse nosync nounwind willreturn memory(argmem: readwrite) uwtable
define void @_ZN4pugi14xpath_node_set5_moveERS0_(ptr noundef nonnull align 8 dereferenceable(40) %this, ptr noundef nonnull align 8 dereferenceable(40) %rhs) local_unnamed_addr #15 align 2 {
entry:
  %0 = load i32, ptr %rhs, align 8
  store i32 %0, ptr %this, align 8
  %_storage = getelementptr inbounds i8, ptr %rhs, i64 8
  %_storage3 = getelementptr inbounds i8, ptr %this, i64 8
  tail call void @llvm.memcpy.p0.p0.i64(ptr noundef nonnull align 8 dereferenceable(16) %_storage3, ptr noundef nonnull align 8 dereferenceable(16) %_storage, i64 16, i1 false)
  %_begin = getelementptr inbounds i8, ptr %rhs, i64 24
  %1 = load ptr, ptr %_begin, align 8
  %cmp = icmp eq ptr %1, %_storage
  %_storage3. = select i1 %cmp, ptr %_storage3, ptr %1
  %_begin9 = getelementptr inbounds i8, ptr %this, i64 24
  store ptr %_storage3., ptr %_begin9, align 8
  %_end = getelementptr inbounds i8, ptr %rhs, i64 32
  %2 = load ptr, ptr %_end, align 8
  %3 = load ptr, ptr %_begin, align 8
  %sub.ptr.lhs.cast = ptrtoint ptr %2 to i64
  %sub.ptr.rhs.cast = ptrtoint ptr %3 to i64
  %sub.ptr.sub = sub i64 %sub.ptr.lhs.cast, %sub.ptr.rhs.cast
  %add.ptr = getelementptr inbounds i8, ptr %_storage3., i64 %sub.ptr.sub
  %_end12 = getelementptr inbounds i8, ptr %this, i64 32
  store ptr %add.ptr, ptr %_end12, align 8
  store i32 0, ptr %rhs, align 8
  store ptr %_storage, ptr %_begin, align 8
  store ptr %_storage, ptr %_end, align 8
  ret void
}